target datalayout = "e-m:e-p270:32:32-p271:32:32-p272:64:64-i64:64-i128:128-f80:128-n8:16:32:64-S128"
target triple = "x86_64-pc-linux-gnu"

@hf_control_pwr_phy = internal global i32 0, align 4
@hf_control_delta = internal global i32 0, align 4
@hf_control_txpwr = internal global i32 0, align 4
@hf_control_pwrflags = internal global i32 0, align 4
@ett_pwr_phy = internal global i32 0, align 4
@ett_pwrflags = internal global i32 0, align 4
@hfx_control_pwr_phy = internal constant [6 x ptr] [ptr @hf_control_pwr_phy_le_1m_phy, ptr @hf_control_pwr_phy_le_2m_phy, ptr @hf_control_pwr_phy_le_coded_s8_phy, ptr @hf_control_pwr_phy_le_coded_s2_phy, ptr @hf_control_pwr_phy_reserved_bits, ptr null], align 16
@hfx_control_pwrflags = internal constant [4 x ptr] [ptr @hf_control_pwrflags_min, ptr @hf_control_pwrflags_max, ptr @hf_control_pwrflags_reserved_bits, ptr null], align 16

; Function Attrs: null_pointer_is_valid sspstrong uwtable
define internal i32 @dissect_power_control_ind(ptr noundef %0, ptr noundef %1, i32 noundef %2) #0 {
  %4 = alloca ptr, align 8
  %5 = alloca ptr, align 8
  %6 = alloca i32, align 4
  store ptr %0, ptr %4, align 8
  store ptr %1, ptr %5, align 8
  store i32 %2, ptr %6, align 4
  %7 = load ptr, ptr %5, align 8
  %8 = load ptr, ptr %4, align 8
  %9 = load i32, ptr %6, align 4
  %10 = load i32, ptr @hf_control_pwr_phy, align 4
  %11 = load i32, ptr @ett_pwr_phy, align 4
  %12 = call ptr @proto_tree_add_bitmask(ptr noundef %7, ptr noundef %8, i32 noundef %9, i32 noundef %10, i32 noundef %11, ptr noundef @hfx_control_pwr_phy, i32 noundef 0)
  %13 = load i32, ptr %6, align 4
  %14 = add i32 %13, 1
  store i32 %14, ptr %6, align 4
  %15 = load ptr, ptr %5, align 8
  %16 = load ptr, ptr %4, align 8
  %17 = load i32, ptr %6, align 4
  %18 = load i32, ptr @hf_control_pwrflags, align 4
  %19 = load i32, ptr @ett_pwrflags, align 4
  %20 = call ptr @proto_tree_add_bitmask(ptr noundef %15, ptr noundef %16, i32 noundef %17, i32 noundef %18, i32 noundef %19, ptr noundef @hfx_control_pwrflags, i32 noundef 0)
  %21 = load i32, ptr %6, align 4
  %22 = add i32 %21, 1
  store i32 %22, ptr %6, align 4
  %23 = load ptr, ptr %5, align 8
  %24 = load i32, ptr @hf_control_delta, align 4
  %25 = load ptr, ptr %4, align 8
  %26 = load i32, ptr %6, align 4
  %27 = call ptr @proto_tree_add_item(ptr noundef %23, i32 noundef %24, ptr noundef %25, i32 noundef %26, i32 noundef 1, i32 noundef 0)
  %28 = load i32, ptr %6, align 4
  %29 = add i32 %28, 1
  store i32 %29, ptr %6, align 4
  %30 = load ptr, ptr %5, align 8
  %31 = load i32, ptr @hf_control_txpwr, align 4
  %32 = load ptr, ptr %4, align 8
  %33 = load i32, ptr %6, align 4
  %34 = call ptr @proto_tree_add_item(ptr noundef %30, i32 noundef %31, ptr noundef %32, i32 noundef %33, i32 noundef 1, i32 noundef 0)
  %35 = load i32, ptr %6, align 4
  %36 = add i32 %35, 1
  store i32 %36, ptr %6, align 4
  %37 = load i32, ptr %6, align 4
  ret i32 %37
}