; Function Attrs: null_pointer_is_valid sspstrong uwtable
define internal fastcc range(i32 7, 9) i32 @dissect_power_control_ind(ptr noundef %0, ptr noundef %1, i32 noundef range(i32 3, 5) %2) unnamed_addr #0 {
  %4 = load i32, ptr @hf_control_pwr_phy, align 4
  %5 = load i32, ptr @ett_pwr_phy, align 4
  %6 = tail call ptr @proto_tree_add_bitmask(ptr noundef %1, ptr noundef %0, i32 noundef %2, i32 noundef %4, i32 noundef %5, ptr noundef nonnull @hfx_control_pwr_phy, i32 noundef 0)
  %7 = add nuw nsw i32 %2, 1
  %8 = load i32, ptr @hf_control_pwrflags, align 4
  %9 = load i32, ptr @ett_pwrflags, align 4
  %10 = tail call ptr @proto_tree_add_bitmask(ptr noundef %1, ptr noundef %0, i32 noundef %7, i32 noundef %8, i32 noundef %9, ptr noundef nonnull @hfx_control_pwrflags, i32 noundef 0)
  %11 = add nuw nsw i32 %2, 2
  %12 = load i32, ptr @hf_control_delta, align 4
  %13 = tail call ptr @proto_tree_add_item(ptr noundef %1, i32 noundef %12, ptr noundef %0, i32 noundef %11, i32 noundef 1, i32 noundef 0)
  %14 = add nuw nsw i32 %2, 3
  %15 = load i32, ptr @hf_control_txpwr, align 4
  %16 = tail call ptr @proto_tree_add_item(ptr noundef %1, i32 noundef %15, ptr noundef %0, i32 noundef %14, i32 noundef 1, i32 noundef 0)
  %17 = add nuw nsw i32 %2, 4
  ret i32 %17
}